target datalayout = "e-m:e-p270:32:32-p271:32:32-p272:64:64-i64:64-i128:128-f80:128-n8:16:32:64-S128"
target triple = "x86_64-unknown-linux-gnu"

%struct.UStringSearch = type { ptr, %struct.UPattern, ptr, ptr, ptr, ptr, ptr, i8, i32, i32, i32, i8 }
%struct.UPattern = type { ptr, i32, i32, ptr, [256 x i32], i32, ptr, [256 x i64], i8, i8 }
%struct.USearch = type { ptr, i32, i8, i8, i16, ptr, ptr, i32, i32, i8, i8 }

; Function Attrs: mustprogress nounwind uwtable
define internal noundef signext i8 @_ZL13isOutOfBoundsii(i32 noundef %textlength, i32 noundef %offset) #1 {
entry:
  %textlength.addr = alloca i32, align 4
  %offset.addr = alloca i32, align 4
  store i32 %textlength, ptr %textlength.addr, align 4
  store i32 %offset, ptr %offset.addr, align 4
  %0 = load i32, ptr %offset.addr, align 4
  %cmp = icmp slt i32 %0, 0
  br i1 %cmp, label %lor.end, label %lor.rhs

lor.rhs:                                          ; preds = %entry
  %1 = load i32, ptr %offset.addr, align 4
  %2 = load i32, ptr %textlength.addr, align 4
  %cmp1 = icmp sgt i32 %1, %2
  br label %lor.end

lor.end:                                          ; preds = %lor.rhs, %entry
  %3 = phi i1 [ true, %entry ], [ %cmp1, %lor.rhs ]
  %conv = zext i1 %3 to i8
  ret i8 %conv
}

; Function Attrs: mustprogress nounwind uwtable
define internal noundef signext i8 @_ZL9U_FAILURE10UErrorCode(i32 noundef %code) #1 {
entry:
  %code.addr = alloca i32, align 4
  store i32 %code, ptr %code.addr, align 4
  %0 = load i32, ptr %code.addr, align 4
  %cmp = icmp sgt i32 %0, 0
  %conv = zext i1 %cmp to i8
  ret i8 %conv
}

; Function Attrs: mustprogress uwtable
define i32 @usearch_getOffset_75(ptr noundef %strsrch) #0 {
entry:
  %retval = alloca i32, align 4
  %strsrch.addr = alloca ptr, align 8
  %result = alloca i32, align 4
  store ptr %strsrch, ptr %strsrch.addr, align 8
  %0 = load ptr, ptr %strsrch.addr, align 8
  %tobool = icmp ne ptr %0, null
  br i1 %tobool, label %if.then, label %if.end4

if.then:                                          ; preds = %entry
  %1 = load ptr, ptr %strsrch.addr, align 8
  %textIter = getelementptr inbounds %struct.UStringSearch, ptr %1, i32 0, i32 4
  %2 = load ptr, ptr %textIter, align 8
  %call = call i32 @ucol_getOffset_75(ptr noundef %2)
  store i32 %call, ptr %result, align 4
  %3 = load ptr, ptr %strsrch.addr, align 8
  %search = getelementptr inbounds %struct.UStringSearch, ptr %3, i32 0, i32 0
  %4 = load ptr, ptr %search, align 8
  %textLength = getelementptr inbounds %struct.USearch, ptr %4, i32 0, i32 1
  %5 = load i32, ptr %textLength, align 8
  %6 = load i32, ptr %result, align 4
  %call1 = call noundef signext i8 @_ZL13isOutOfBoundsii(i32 noundef %5, i32 noundef %6)
  %tobool2 = icmp ne i8 %call1, 0
  br i1 %tobool2, label %if.then3, label %if.end

if.then3:                                         ; preds = %if.then
  store i32 -1, ptr %retval, align 4
  br label %return

if.end:                                           ; preds = %if.then
  %7 = load i32, ptr %result, align 4
  store i32 %7, ptr %retval, align 4
  br label %return

if.end4:                                          ; preds = %entry
  store i32 -1, ptr %retval, align 4
  br label %return

return:                                           ; preds = %if.end4, %if.end, %if.then3
  %8 = load i32, ptr %retval, align 4
  ret i32 %8
}

; Function Attrs: mustprogress uwtable
define internal void @_ZL17setColEIterOffsetP18UCollationElementsiR10UErrorCode(ptr noundef %elems, i32 noundef %offset, ptr noundef nonnull align 4 dereferenceable(4) %status) #0 {
entry:
  %elems.addr = alloca ptr, align 8
  %offset.addr = alloca i32, align 4
  %status.addr = alloca ptr, align 8
  store ptr %elems, ptr %elems.addr, align 8
  store i32 %offset, ptr %offset.addr, align 4
  store ptr %status, ptr %status.addr, align 8
  %0 = load ptr, ptr %elems.addr, align 8
  %1 = load i32, ptr %offset.addr, align 4
  %2 = load ptr, ptr %status.addr, align 8
  call void @ucol_setOffset_75(ptr noundef %0, i32 noundef %1, ptr noundef %2)
  ret void
}

; Function Attrs: mustprogress nounwind uwtable
define internal noundef signext i8 @_ZL9U_SUCCESS10UErrorCode(i32 noundef %code) #1 {
entry:
  %code.addr = alloca i32, align 4
  store i32 %code, ptr %code.addr, align 4
  %0 = load i32, ptr %code.addr, align 4
  %cmp = icmp sle i32 %0, 0
  %conv = zext i1 %cmp to i8
  ret i8 %conv
}

; Function Attrs: mustprogress uwtable
define i32 @usearch_previous_75(ptr noundef %strsrch, ptr noundef %status) #0 {
entry:
  %retval = alloca i32, align 4
  %strsrch.addr = alloca ptr, align 8
  %status.addr = alloca ptr, align 8
  %offset = alloca i32, align 4
  %search = alloca ptr, align 8
  %matchedindex = alloca i32, align 4
  store ptr %strsrch, ptr %strsrch.addr, align 8
  store ptr %status, ptr %status.addr, align 8
  %0 = load ptr, ptr %status.addr, align 8
  %1 = load i32, ptr %0, align 4
  %call = call noundef signext i8 @_ZL9U_SUCCESS10UErrorCode(i32 noundef %1)
  %tobool = icmp ne i8 %call, 0
  br i1 %tobool, label %land.lhs.true, label %if.end65

land.lhs.true:                                    ; preds = %entry
  %2 = load ptr, ptr %strsrch.addr, align 8
  %tobool1 = icmp ne ptr %2, null
  br i1 %tobool1, label %if.then, label %if.end65

if.then:                                          ; preds = %land.lhs.true
  %3 = load ptr, ptr %strsrch.addr, align 8
  %search2 = getelementptr inbounds %struct.UStringSearch, ptr %3, i32 0, i32 0
  %4 = load ptr, ptr %search2, align 8
  store ptr %4, ptr %search, align 8
  %5 = load ptr, ptr %search, align 8
  %reset = getelementptr inbounds %struct.USearch, ptr %5, i32 0, i32 10
  %6 = load i8, ptr %reset, align 1
  %tobool3 = icmp ne i8 %6, 0
  br i1 %tobool3, label %if.then4, label %if.else

if.then4:                                         ; preds = %if.then
  %7 = load ptr, ptr %search, align 8
  %textLength = getelementptr inbounds %struct.USearch, ptr %7, i32 0, i32 1
  %8 = load i32, ptr %textLength, align 8
  store i32 %8, ptr %offset, align 4
  %9 = load ptr, ptr %search, align 8
  %isForwardSearching = getelementptr inbounds %struct.USearch, ptr %9, i32 0, i32 9
  store i8 0, ptr %isForwardSearching, align 8
  %10 = load ptr, ptr %search, align 8
  %reset5 = getelementptr inbounds %struct.USearch, ptr %10, i32 0, i32 10
  store i8 0, ptr %reset5, align 1
  %11 = load ptr, ptr %strsrch.addr, align 8
  %textIter = getelementptr inbounds %struct.UStringSearch, ptr %11, i32 0, i32 4
  %12 = load ptr, ptr %textIter, align 8
  %13 = load i32, ptr %offset, align 4
  %14 = load ptr, ptr %status.addr, align 8
  call void @_ZL17setColEIterOffsetP18UCollationElementsiR10UErrorCode(ptr noundef %12, i32 noundef %13, ptr noundef nonnull align 4 dereferenceable(4) %14)
  br label %if.end

if.else:                                          ; preds = %if.then
  %15 = load ptr, ptr %strsrch.addr, align 8
  %call6 = call i32 @usearch_getOffset_75(ptr noundef %15)
  store i32 %call6, ptr %offset, align 4
  br label %if.end

if.end:                                           ; preds = %if.else, %if.then4
  %16 = load ptr, ptr %search, align 8
  %matchedIndex = getelementptr inbounds %struct.USearch, ptr %16, i32 0, i32 7
  %17 = load i32, ptr %matchedIndex, align 8
  store i32 %17, ptr %matchedindex, align 4
  %18 = load ptr, ptr %search, align 8
  %isForwardSearching7 = getelementptr inbounds %struct.USearch, ptr %18, i32 0, i32 9
  %19 = load i8, ptr %isForwardSearching7, align 8
  %tobool8 = icmp ne i8 %19, 0
  br i1 %tobool8, label %if.then9, label %if.else13

if.then9:                                         ; preds = %if.end
  %20 = load ptr, ptr %search, align 8
  %isForwardSearching10 = getelementptr inbounds %struct.USearch, ptr %20, i32 0, i32 9
  store i8 0, ptr %isForwardSearching10, align 8
  %21 = load i32, ptr %matchedindex, align 4
  %cmp = icmp ne i32 %21, -1
  br i1 %cmp, label %if.then11, label %if.end12

if.then11:                                        ; preds = %if.then9
  %22 = load i32, ptr %matchedindex, align 4
  store i32 %22, ptr %retval, align 4
  br label %return

if.end12:                                         ; preds = %if.then9
  br label %if.end18

if.else13:                                        ; preds = %if.end
  %23 = load i32, ptr %offset, align 4
  %cmp14 = icmp eq i32 %23, 0
  br i1 %cmp14, label %if.then16, label %lor.lhs.false

lor.lhs.false:                                    ; preds = %if.else13
  %24 = load i32, ptr %matchedindex, align 4
  %cmp15 = icmp eq i32 %24, 0
  br i1 %cmp15, label %if.then16, label %if.end17

if.then16:                                        ; preds = %lor.lhs.false, %if.else13
  %25 = load ptr, ptr %strsrch.addr, align 8
  %26 = load ptr, ptr %status.addr, align 8
  call void @_ZL16setMatchNotFoundP13UStringSearchR10UErrorCode(ptr noundef %25, ptr noundef nonnull align 4 dereferenceable(4) %26)
  store i32 -1, ptr %retval, align 4
  br label %return

if.end17:                                         ; preds = %lor.lhs.false
  br label %if.end18

if.end18:                                         ; preds = %if.end17, %if.end12
  %27 = load ptr, ptr %status.addr, align 8
  %28 = load i32, ptr %27, align 4
  %call19 = call noundef signext i8 @_ZL9U_SUCCESS10UErrorCode(i32 noundef %28)
  %tobool20 = icmp ne i8 %call19, 0
  br i1 %tobool20, label %if.then21, label %if.end64

if.then21:                                        ; preds = %if.end18
  %29 = load ptr, ptr %strsrch.addr, align 8
  %pattern = getelementptr inbounds %struct.UStringSearch, ptr %29, i32 0, i32 1
  %cesLength = getelementptr inbounds %struct.UPattern, ptr %pattern, i32 0, i32 2
  %30 = load i32, ptr %cesLength, align 4
  %cmp22 = icmp eq i32 %30, 0
  br i1 %cmp22, label %if.then23, label %if.else50

if.then23:                                        ; preds = %if.then21
  %31 = load i32, ptr %matchedindex, align 4
  %cmp24 = icmp eq i32 %31, -1
  br i1 %cmp24, label %cond.true, label %cond.false

cond.true:                                        ; preds = %if.then23
  %32 = load i32, ptr %offset, align 4
  br label %cond.end

cond.false:                                       ; preds = %if.then23
  %33 = load i32, ptr %matchedindex, align 4
  br label %cond.end

cond.end:                                         ; preds = %cond.false, %cond.true
  %cond = phi i32 [ %32, %cond.true ], [ %33, %cond.false ]
  %34 = load ptr, ptr %search, align 8
  %matchedIndex25 = getelementptr inbounds %struct.USearch, ptr %34, i32 0, i32 7
  store i32 %cond, ptr %matchedIndex25, align 8
  %35 = load ptr, ptr %search, align 8
  %matchedIndex26 = getelementptr inbounds %struct.USearch, ptr %35, i32 0, i32 7
  %36 = load i32, ptr %matchedIndex26, align 8
  %cmp27 = icmp eq i32 %36, 0
  br i1 %cmp27, label %if.then28, label %if.else29

if.then28:                                        ; preds = %cond.end
  %37 = load ptr, ptr %strsrch.addr, align 8
  %38 = load ptr, ptr %status.addr, align 8
  call void @_ZL16setMatchNotFoundP13UStringSearchR10UErrorCode(ptr noundef %37, ptr noundef nonnull align 4 dereferenceable(4) %38)
  br label %if.end49

if.else29:                                        ; preds = %cond.end
  br label %do.body

do.body:                                          ; preds = %if.else29
  %39 = load ptr, ptr %search, align 8
  %text = getelementptr inbounds %struct.USearch, ptr %39, i32 0, i32 0
  %40 = load ptr, ptr %text, align 8
  %41 = load ptr, ptr %search, align 8
  %matchedIndex30 = getelementptr inbounds %struct.USearch, ptr %41, i32 0, i32 7
  %42 = load i32, ptr %matchedIndex30, align 8
  %dec = add nsw i32 %42, -1
  store i32 %dec, ptr %matchedIndex30, align 8
  %idxprom = sext i32 %dec to i64
  %arrayidx = getelementptr inbounds i16, ptr %40, i64 %idxprom
  %43 = load i16, ptr %arrayidx, align 2
  %conv = zext i16 %43 to i32
  %and = and i32 %conv, -1024
  %cmp31 = icmp eq i32 %and, 56320
  br i1 %cmp31, label %land.lhs.true32, label %if.end46

land.lhs.true32:                                  ; preds = %do.body
  %44 = load ptr, ptr %search, align 8
  %matchedIndex33 = getelementptr inbounds %struct.USearch, ptr %44, i32 0, i32 7
  %45 = load i32, ptr %matchedIndex33, align 8
  %cmp34 = icmp sgt i32 %45, 0
  br i1 %cmp34, label %land.lhs.true35, label %if.end46

land.lhs.true35:                                  ; preds = %land.lhs.true32
  %46 = load ptr, ptr %search, align 8
  %text36 = getelementptr inbounds %struct.USearch, ptr %46, i32 0, i32 0
  %47 = load ptr, ptr %text36, align 8
  %48 = load ptr, ptr %search, align 8
  %matchedIndex37 = getelementptr inbounds %struct.USearch, ptr %48, i32 0, i32 7
  %49 = load i32, ptr %matchedIndex37, align 8
  %sub = sub nsw i32 %49, 1
  %idxprom38 = sext i32 %sub to i64
  %arrayidx39 = getelementptr inbounds i16, ptr %47, i64 %idxprom38
  %50 = load i16, ptr %arrayidx39, align 2
  %conv40 = zext i16 %50 to i32
  %and41 = and i32 %conv40, -1024
  %cmp42 = icmp eq i32 %and41, 55296
  br i1 %cmp42, label %if.then43, label %if.end46

if.then43:                                        ; preds = %land.lhs.true35
  %51 = load ptr, ptr %search, align 8
  %matchedIndex44 = getelementptr inbounds %struct.USearch, ptr %51, i32 0, i32 7
  %52 = load i32, ptr %matchedIndex44, align 8
  %dec45 = add nsw i32 %52, -1
  store i32 %dec45, ptr %matchedIndex44, align 8
  br label %if.end46

if.end46:                                         ; preds = %if.then43, %land.lhs.true35, %land.lhs.true32, %do.body
  br label %do.end

do.end:                                           ; preds = %if.end46
  %53 = load ptr, ptr %strsrch.addr, align 8
  %textIter47 = getelementptr inbounds %struct.UStringSearch, ptr %53, i32 0, i32 4
  %54 = load ptr, ptr %textIter47, align 8
  %55 = load ptr, ptr %search, align 8
  %matchedIndex48 = getelementptr inbounds %struct.USearch, ptr %55, i32 0, i32 7
  %56 = load i32, ptr %matchedIndex48, align 8
  %57 = load ptr, ptr %status.addr, align 8
  call void @_ZL17setColEIterOffsetP18UCollationElementsiR10UErrorCode(ptr noundef %54, i32 noundef %56, ptr noundef nonnull align 4 dereferenceable(4) %57)
  %58 = load ptr, ptr %search, align 8
  %matchedLength = getelementptr inbounds %struct.USearch, ptr %58, i32 0, i32 8
  store i32 0, ptr %matchedLength, align 4
  br label %if.end49

if.end49:                                         ; preds = %do.end, %if.then28
  br label %if.end58

if.else50:                                        ; preds = %if.then21
  %59 = load ptr, ptr %strsrch.addr, align 8
  %search51 = getelementptr inbounds %struct.UStringSearch, ptr %59, i32 0, i32 0
  %60 = load ptr, ptr %search51, align 8
  %isCanonicalMatch = getelementptr inbounds %struct.USearch, ptr %60, i32 0, i32 3
  %61 = load i8, ptr %isCanonicalMatch, align 1
  %tobool52 = icmp ne i8 %61, 0
  br i1 %tobool52, label %if.then53, label %if.else55

if.then53:                                        ; preds = %if.else50
  %62 = load ptr, ptr %strsrch.addr, align 8
  %63 = load ptr, ptr %status.addr, align 8
  %call54 = call signext i8 @usearch_handlePreviousCanonical_75(ptr noundef %62, ptr noundef %63)
  br label %if.end57

if.else55:                                        ; preds = %if.else50
  %64 = load ptr, ptr %strsrch.addr, align 8
  %65 = load ptr, ptr %status.addr, align 8
  %call56 = call signext i8 @usearch_handlePreviousExact_75(ptr noundef %64, ptr noundef %65)
  br label %if.end57

if.end57:                                         ; preds = %if.else55, %if.then53
  br label %if.end58

if.end58:                                         ; preds = %if.end57, %if.end49
  %66 = load ptr, ptr %status.addr, align 8
  %67 = load i32, ptr %66, align 4
  %call59 = call noundef signext i8 @_ZL9U_FAILURE10UErrorCode(i32 noundef %67)
  %tobool60 = icmp ne i8 %call59, 0
  br i1 %tobool60, label %if.then61, label %if.end62

if.then61:                                        ; preds = %if.end58
  store i32 -1, ptr %retval, align 4
  br label %return

if.end62:                                         ; preds = %if.end58
  %68 = load ptr, ptr %search, align 8
  %matchedIndex63 = getelementptr inbounds %struct.USearch, ptr %68, i32 0, i32 7
  %69 = load i32, ptr %matchedIndex63, align 8
  store i32 %69, ptr %retval, align 4
  br label %return

if.end64:                                         ; preds = %if.end18
  br label %if.end65

if.end65:                                         ; preds = %if.end64, %land.lhs.true, %entry
  store i32 -1, ptr %retval, align 4
  br label %return

return:                                           ; preds = %if.end65, %if.end62, %if.then61, %if.then16, %if.then11
  %70 = load i32, ptr %retval, align 4
  ret i32 %70
}