; Function Attrs: mustprogress uwtable
define i32 @usearch_previous_75(ptr noundef %strsrch, ptr noundef %status) local_unnamed_addr #0 {
entry:
  %localStatus.i = alloca i32, align 4
  %0 = load i32, ptr %status, align 4
  %cmp.i = icmp slt i32 %0, 1
  %tobool1 = icmp ne ptr %strsrch, null
  %or.cond = and i1 %tobool1, %cmp.i
  br i1 %or.cond, label %if.then, label %return

if.then:                                          ; preds = %entry
  %1 = load ptr, ptr %strsrch, align 8
  %reset = getelementptr inbounds i8, ptr %1, i64 41
  %2 = load i8, ptr %reset, align 1
  %tobool3.not = icmp eq i8 %2, 0
  br i1 %tobool3.not, label %usearch_getOffset_75.exit, label %if.then4

if.then4:                                         ; preds = %if.then
  %textLength = getelementptr inbounds i8, ptr %1, i64 8
  %3 = load i32, ptr %textLength, align 8
  %isForwardSearching = getelementptr inbounds i8, ptr %1, i64 40
  store i8 0, ptr %isForwardSearching, align 8
  store i8 0, ptr %reset, align 1
  %textIter = getelementptr inbounds i8, ptr %strsrch, i64 3144
  %4 = load ptr, ptr %textIter, align 8
  tail call void @ucol_setOffset_75(ptr noundef %4, i32 noundef %3, ptr noundef nonnull %status)
  br label %if.end

usearch_getOffset_75.exit:                        ; preds = %if.then
  %textIter.i = getelementptr inbounds i8, ptr %strsrch, i64 3144
  %5 = load ptr, ptr %textIter.i, align 8
  %call.i = tail call i32 @ucol_getOffset_75(ptr noundef %5)
  %6 = load ptr, ptr %strsrch, align 8
  %textLength.i = getelementptr inbounds i8, ptr %6, i64 8
  %7 = load i32, ptr %textLength.i, align 8
  %cmp1.i.not.i = icmp sgt i32 %call.i, %7
  %8 = tail call i32 @llvm.smax.i32(i32 %call.i, i32 -1)
  %call..i = select i1 %cmp1.i.not.i, i32 -1, i32 %8
  br label %if.end

if.end:                                           ; preds = %usearch_getOffset_75.exit, %if.then4
  %offset.0 = phi i32 [ %3, %if.then4 ], [ %call..i, %usearch_getOffset_75.exit ]
  %matchedIndex = getelementptr inbounds i8, ptr %1, i64 32
  %9 = load i32, ptr %matchedIndex, align 8
  %isForwardSearching7 = getelementptr inbounds i8, ptr %1, i64 40
  %10 = load i8, ptr %isForwardSearching7, align 8
  %tobool8.not = icmp eq i8 %10, 0
  br i1 %tobool8.not, label %if.else13, label %if.then9

if.then9:                                         ; preds = %if.end
  store i8 0, ptr %isForwardSearching7, align 8
  %cmp.not = icmp eq i32 %9, -1
  br i1 %cmp.not, label %if.end18, label %return

if.else13:                                        ; preds = %if.end
  %cmp14 = icmp eq i32 %offset.0, 0
  %cmp15 = icmp eq i32 %9, 0
  %or.cond1 = select i1 %cmp14, i1 true, i1 %cmp15
  br i1 %or.cond1, label %if.then16, label %if.end18

if.then16:                                        ; preds = %if.else13
  call void @llvm.lifetime.start.p0(i64 4, ptr nonnull %localStatus.i)
  store i32 0, ptr %localStatus.i, align 4
  %11 = load ptr, ptr %strsrch, align 8
  %matchedIndex.i = getelementptr inbounds i8, ptr %11, i64 32
  store i32 -1, ptr %matchedIndex.i, align 8
  %12 = load ptr, ptr %strsrch, align 8
  %matchedLength.i = getelementptr inbounds i8, ptr %12, i64 36
  store i32 0, ptr %matchedLength.i, align 4
  %13 = load ptr, ptr %strsrch, align 8
  %isForwardSearching.i = getelementptr inbounds i8, ptr %13, i64 40
  %14 = load i8, ptr %isForwardSearching.i, align 8
  %tobool.not.i44 = icmp eq i8 %14, 0
  %textIter4.i = getelementptr inbounds i8, ptr %strsrch, i64 3144
  %15 = load ptr, ptr %textIter4.i, align 8
  br i1 %tobool.not.i44, label %if.end.i, label %if.then.i45

if.then.i45:                                      ; preds = %if.then16
  %textLength.i46 = getelementptr inbounds i8, ptr %13, i64 8
  %16 = load i32, ptr %textLength.i46, align 8
  br label %if.end.i

if.end.i:                                         ; preds = %if.then.i45, %if.then16
  %.sink.i = phi i32 [ %16, %if.then.i45 ], [ 0, %if.then16 ]
  call void @ucol_setOffset_75(ptr noundef %15, i32 noundef %.sink.i, ptr noundef nonnull %localStatus.i)
  %17 = load i32, ptr %status, align 4
  %cmp.i.i = icmp sgt i32 %17, 0
  br i1 %cmp.i.i, label %_ZL16setMatchNotFoundP13UStringSearchR10UErrorCode.exit, label %land.lhs.true.i

land.lhs.true.i:                                  ; preds = %if.end.i
  %18 = load i32, ptr %localStatus.i, align 4
  %cmp.i7.i = icmp slt i32 %18, 1
  br i1 %cmp.i7.i, label %_ZL16setMatchNotFoundP13UStringSearchR10UErrorCode.exit, label %if.then8.i

if.then8.i:                                       ; preds = %land.lhs.true.i
  store i32 %18, ptr %status, align 4
  br label %_ZL16setMatchNotFoundP13UStringSearchR10UErrorCode.exit

_ZL16setMatchNotFoundP13UStringSearchR10UErrorCode.exit: ; preds = %if.end.i, %land.lhs.true.i, %if.then8.i
  call void @llvm.lifetime.end.p0(i64 4, ptr nonnull %localStatus.i)
  br label %return

if.end18:                                         ; preds = %if.else13, %if.then9
  %19 = load i32, ptr %status, align 4
  %cmp.i47 = icmp sgt i32 %19, 0
  br i1 %cmp.i47, label %return, label %if.then21

if.then21:                                        ; preds = %if.end18
  %cesLength = getelementptr inbounds i8, ptr %strsrch, i64 20
  %20 = load i32, ptr %cesLength, align 4
  %cmp22 = icmp eq i32 %20, 0
  br i1 %cmp22, label %if.then23, label %if.else50

if.then23:                                        ; preds = %if.then21
  %cmp24 = icmp eq i32 %9, -1
  %cond = select i1 %cmp24, i32 %offset.0, i32 %9
  store i32 %cond, ptr %matchedIndex, align 8
  %cmp27 = icmp eq i32 %cond, 0
  br i1 %cmp27, label %if.then28, label %do.body

if.then28:                                        ; preds = %if.then23
  tail call fastcc void @_ZL16setMatchNotFoundP13UStringSearchR10UErrorCode(ptr noundef nonnull %strsrch, ptr noundef nonnull align 4 dereferenceable(4) %status)
  br label %if.end58

do.body:                                          ; preds = %if.then23
  %21 = load ptr, ptr %1, align 8
  %dec = add nsw i32 %cond, -1
  store i32 %dec, ptr %matchedIndex, align 8
  %idxprom = sext i32 %dec to i64
  %arrayidx = getelementptr inbounds i16, ptr %21, i64 %idxprom
  %22 = load i16, ptr %arrayidx, align 2
  %23 = and i16 %22, -1024
  %cmp31 = icmp eq i16 %23, -9216
  %cmp34 = icmp sgt i32 %cond, 1
  %or.cond43 = and i1 %cmp34, %cmp31
  br i1 %or.cond43, label %land.lhs.true35, label %do.end

land.lhs.true35:                                  ; preds = %do.body
  %24 = zext nneg i32 %cond to i64
  %25 = getelementptr i16, ptr %21, i64 %24
  %arrayidx39 = getelementptr i8, ptr %25, i64 -4
  %26 = load i16, ptr %arrayidx39, align 2
  %27 = and i16 %26, -1024
  %cmp42 = icmp eq i16 %27, -10240
  br i1 %cmp42, label %if.then43, label %do.end

if.then43:                                        ; preds = %land.lhs.true35
  %dec45 = add nsw i32 %cond, -2
  store i32 %dec45, ptr %matchedIndex, align 8
  br label %do.end

do.end:                                           ; preds = %do.body, %land.lhs.true35, %if.then43
  %28 = phi i32 [ %dec, %do.body ], [ %dec, %land.lhs.true35 ], [ %dec45, %if.then43 ]
  %textIter47 = getelementptr inbounds i8, ptr %strsrch, i64 3144
  %29 = load ptr, ptr %textIter47, align 8
  tail call void @ucol_setOffset_75(ptr noundef %29, i32 noundef %28, ptr noundef nonnull %status)
  %matchedLength = getelementptr inbounds i8, ptr %1, i64 36
  store i32 0, ptr %matchedLength, align 4
  br label %if.end58

if.else50:                                        ; preds = %if.then21
  %30 = load ptr, ptr %strsrch, align 8
  %isCanonicalMatch = getelementptr inbounds i8, ptr %30, i64 13
  %31 = load i8, ptr %isCanonicalMatch, align 1
  %tobool52.not = icmp eq i8 %31, 0
  br i1 %tobool52.not, label %if.else55, label %if.then53

if.then53:                                        ; preds = %if.else50
  %call54 = tail call signext i8 @usearch_handlePreviousCanonical_75(ptr noundef nonnull %strsrch, ptr noundef nonnull %status), !range !6
  br label %if.end58

if.else55:                                        ; preds = %if.else50
  %call56 = tail call signext i8 @usearch_handlePreviousExact_75(ptr noundef nonnull %strsrch, ptr noundef nonnull %status), !range !6
  br label %if.end58

if.end58:                                         ; preds = %if.then53, %if.else55, %if.then28, %do.end
  %32 = load i32, ptr %status, align 4
  %cmp.i49 = icmp slt i32 %32, 1
  br i1 %cmp.i49, label %if.end62, label %return

if.end62:                                         ; preds = %if.end58
  %33 = load i32, ptr %matchedIndex, align 8
  br label %return

return:                                           ; preds = %entry, %if.end18, %if.end58, %if.then9, %if.end62, %_ZL16setMatchNotFoundP13UStringSearchR10UErrorCode.exit
  %retval.0 = phi i32 [ %33, %if.end62 ], [ -1, %_ZL16setMatchNotFoundP13UStringSearchR10UErrorCode.exit ], [ %9, %if.then9 ], [ -1, %if.end58 ], [ -1, %if.end18 ], [ -1, %entry ]
  ret i32 %retval.0
}